target datalayout = "e-m:e-p270:32:32-p271:32:32-p272:64:64-i64:64-i128:128-f80:128-n8:16:32:64-S128"
target triple = "x86_64-pc-linux-gnu"

%struct.expert_field = type { i32, i32 }
%struct._packet_info = type { ptr, ptr, i32, i32, %struct.nstime_t, %struct.nstime_t, %struct.nstime_t, i8, ptr, ptr, ptr, ptr, %struct._address, %struct._address, %struct._address, %struct._address, %struct._address, %struct._address, i32, ptr, i8, [3 x i8], %struct.anon, i32, i32, i32, i32, ptr, i8, ptr, ptr, i16, i16, i32, i32, i16, i32, i32, ptr, ptr, ptr, i8, i8, i16, i16, i16, i32, i16, i16, ptr, ptr, ptr, ptr, ptr, i32, i32 }
%struct.nstime_t = type { i64, i32 }
%struct._address = type { i32, i32, ptr, ptr }
%struct.anon = type { i8, [3 x i8] }

@ei_gsm_a_gm_extraneous_data = internal global %struct.expert_field zeroinitializer, align 4
@.str.1128 = private unnamed_addr constant [22 x i8] c" - Requested LLC SAPI\00", align 1
@.str.1140 = private unnamed_addr constant [21 x i8] c" - Requested new QoS\00", align 1
@.str.1141 = private unnamed_addr constant [11 x i8] c" - New TFT\00", align 1

; Function Attrs: null_pointer_is_valid sspstrong uwtable
define internal void @dtap_sm_mod_pdp_req_ms(ptr noundef %0, ptr noundef %1, ptr noundef %2, i32 noundef %3, i32 noundef %4) #1 {
  %6 = alloca ptr, align 8
  %7 = alloca ptr, align 8
  %8 = alloca ptr, align 8
  %9 = alloca i32, align 4
  %10 = alloca i32, align 4
  %11 = alloca i32, align 4
  %12 = alloca i32, align 4
  %13 = alloca i32, align 4
  %14 = alloca i32, align 4
  store ptr %0, ptr %6, align 8
  store ptr %1, ptr %7, align 8
  store ptr %2, ptr %8, align 8
  store i32 %3, ptr %9, align 4
  store i32 %4, ptr %10, align 4
  call void @llvm.lifetime.start.p0(i64 4, ptr %11) #6
  call void @llvm.lifetime.start.p0(i64 4, ptr %12) #6
  call void @llvm.lifetime.start.p0(i64 4, ptr %13) #6
  %15 = load i32, ptr %9, align 4
  store i32 %15, ptr %11, align 4
  %16 = load i32, ptr %10, align 4
  store i32 %16, ptr %13, align 4
  %17 = load ptr, ptr %8, align 8
  %18 = getelementptr inbounds nuw %struct._packet_info, ptr %17, i32 0, i32 37
  store i32 -1, ptr %18, align 4
  %19 = load ptr, ptr %8, align 8
  %20 = getelementptr inbounds nuw %struct._packet_info, ptr %19, i32 0, i32 46
  store i32 0, ptr %20, align 8
  %21 = load i32, ptr %13, align 4
  %22 = icmp sle i32 %21, 0
  br i1 %22, label %23, label %24

23:                                               ; preds = %5
  store i32 1, ptr %14, align 4
  br label %194

24:                                               ; preds = %5
  %25 = load ptr, ptr %6, align 8
  %26 = load ptr, ptr %7, align 8
  %27 = load ptr, ptr %8, align 8
  %28 = load i32, ptr %11, align 4
  %29 = call zeroext i16 @elem_tv(ptr noundef %25, ptr noundef %26, ptr noundef %27, i8 noundef zeroext 50, i32 noundef 5, i32 noundef 54, i32 noundef %28, ptr noundef @.str.1128)
  %30 = zext i16 %29 to i32
  store i32 %30, ptr %12, align 4
  %31 = icmp ugt i32 %30, 0
  br i1 %31, label %32, label %39

32:                                               ; preds = %24
  %33 = load i32, ptr %12, align 4
  %34 = load i32, ptr %11, align 4
  %35 = add i32 %34, %33
  store i32 %35, ptr %11, align 4
  %36 = load i32, ptr %12, align 4
  %37 = load i32, ptr %13, align 4
  %38 = sub i32 %37, %36
  store i32 %38, ptr %13, align 4
  br label %39

39:                                               ; preds = %32, %24
  %40 = load i32, ptr %13, align 4
  %41 = icmp sle i32 %40, 0
  br i1 %41, label %42, label %43

42:                                               ; preds = %39
  store i32 1, ptr %14, align 4
  br label %194

43:                                               ; preds = %39
  %44 = load ptr, ptr %6, align 8
  %45 = load ptr, ptr %7, align 8
  %46 = load ptr, ptr %8, align 8
  %47 = load i32, ptr %11, align 4
  %48 = load i32, ptr %13, align 4
  %49 = call zeroext i16 @elem_tlv(ptr noundef %44, ptr noundef %45, ptr noundef %46, i8 noundef zeroext 48, i32 noundef 5, i32 noundef 48, i32 noundef %47, i32 noundef %48, ptr noundef @.str.1140)
  %50 = zext i16 %49 to i32
  store i32 %50, ptr %12, align 4
  %51 = icmp ugt i32 %50, 0
  br i1 %51, label %52, label %59

52:                                               ; preds = %43
  %53 = load i32, ptr %12, align 4
  %54 = load i32, ptr %11, align 4
  %55 = add i32 %54, %53
  store i32 %55, ptr %11, align 4
  %56 = load i32, ptr %12, align 4
  %57 = load i32, ptr %13, align 4
  %58 = sub i32 %57, %56
  store i32 %58, ptr %13, align 4
  br label %59

59:                                               ; preds = %52, %43
  %60 = load i32, ptr %13, align 4
  %61 = icmp sle i32 %60, 0
  br i1 %61, label %62, label %63

62:                                               ; preds = %59
  store i32 1, ptr %14, align 4
  br label %194

63:                                               ; preds = %59
  %64 = load ptr, ptr %6, align 8
  %65 = load ptr, ptr %7, align 8
  %66 = load ptr, ptr %8, align 8
  %67 = load i32, ptr %11, align 4
  %68 = load i32, ptr %13, align 4
  %69 = call zeroext i16 @elem_tlv(ptr noundef %64, ptr noundef %65, ptr noundef %66, i8 noundef zeroext 49, i32 noundef 5, i32 noundef 57, i32 noundef %67, i32 noundef %68, ptr noundef @.str.1141)
  %70 = zext i16 %69 to i32
  store i32 %70, ptr %12, align 4
  %71 = icmp ugt i32 %70, 0
  br i1 %71, label %72, label %79

72:                                               ; preds = %63
  %73 = load i32, ptr %12, align 4
  %74 = load i32, ptr %11, align 4
  %75 = add i32 %74, %73
  store i32 %75, ptr %11, align 4
  %76 = load i32, ptr %12, align 4
  %77 = load i32, ptr %13, align 4
  %78 = sub i32 %77, %76
  store i32 %78, ptr %13, align 4
  br label %79

79:                                               ; preds = %72, %63
  %80 = load i32, ptr %13, align 4
  %81 = icmp sle i32 %80, 0
  br i1 %81, label %82, label %83

82:                                               ; preds = %79
  store i32 1, ptr %14, align 4
  br label %194

83:                                               ; preds = %79
  %84 = load ptr, ptr %6, align 8
  %85 = load ptr, ptr %7, align 8
  %86 = load ptr, ptr %8, align 8
  %87 = load i32, ptr %11, align 4
  %88 = load i32, ptr %13, align 4
  %89 = call zeroext i16 @elem_tlv(ptr noundef %84, ptr noundef %85, ptr noundef %86, i8 noundef zeroext 39, i32 noundef 5, i32 noundef 45, i32 noundef %87, i32 noundef %88, ptr noundef null)
  %90 = zext i16 %89 to i32
  store i32 %90, ptr %12, align 4
  %91 = icmp ugt i32 %90, 0
  br i1 %91, label %92, label %99

92:                                               ; preds = %83
  %93 = load i32, ptr %12, align 4
  %94 = load i32, ptr %11, align 4
  %95 = add i32 %94, %93
  store i32 %95, ptr %11, align 4
  %96 = load i32, ptr %12, align 4
  %97 = load i32, ptr %13, align 4
  %98 = sub i32 %97, %96
  store i32 %98, ptr %13, align 4
  br label %99

99:                                               ; preds = %92, %83
  %100 = load i32, ptr %13, align 4
  %101 = icmp sle i32 %100, 0
  br i1 %101, label %102, label %103

102:                                              ; preds = %99
  store i32 1, ptr %14, align 4
  br label %194

103:                                              ; preds = %99
  %104 = load ptr, ptr %6, align 8
  %105 = load ptr, ptr %7, align 8
  %106 = load ptr, ptr %8, align 8
  %107 = load i32, ptr %11, align 4
  %108 = call zeroext i16 @elem_tv_short(ptr noundef %104, ptr noundef %105, ptr noundef %106, i8 noundef zeroext -64, i32 noundef 5, i32 noundef 75, i32 noundef %107, ptr noundef null)
  %109 = zext i16 %108 to i32
  store i32 %109, ptr %12, align 4
  %110 = icmp ugt i32 %109, 0
  br i1 %110, label %111, label %118

111:                                              ; preds = %103
  %112 = load i32, ptr %12, align 4
  %113 = load i32, ptr %11, align 4
  %114 = add i32 %113, %112
  store i32 %114, ptr %11, align 4
  %115 = load i32, ptr %12, align 4
  %116 = load i32, ptr %13, align 4
  %117 = sub i32 %116, %115
  store i32 %117, ptr %13, align 4
  br label %118

118:                                              ; preds = %111, %103
  %119 = load i32, ptr %13, align 4
  %120 = icmp sle i32 %119, 0
  br i1 %120, label %121, label %122

121:                                              ; preds = %118
  store i32 1, ptr %14, align 4
  br label %194

122:                                              ; preds = %118
  %123 = load ptr, ptr %6, align 8
  %124 = load ptr, ptr %7, align 8
  %125 = load ptr, ptr %8, align 8
  %126 = load i32, ptr %11, align 4
  %127 = load i32, ptr %13, align 4
  %128 = call zeroext i16 @elem_tlv(ptr noundef %123, ptr noundef %124, ptr noundef %125, i8 noundef zeroext 51, i32 noundef 5, i32 noundef 66, i32 noundef %126, i32 noundef %127, ptr noundef null)
  %129 = zext i16 %128 to i32
  store i32 %129, ptr %12, align 4
  %130 = icmp ugt i32 %129, 0
  br i1 %130, label %131, label %138

131:                                              ; preds = %122
  %132 = load i32, ptr %12, align 4
  %133 = load i32, ptr %11, align 4
  %134 = add i32 %133, %132
  store i32 %134, ptr %11, align 4
  %135 = load i32, ptr %12, align 4
  %136 = load i32, ptr %13, align 4
  %137 = sub i32 %136, %135
  store i32 %137, ptr %13, align 4
  br label %138

138:                                              ; preds = %131, %122
  %139 = load i32, ptr %13, align 4
  %140 = icmp sle i32 %139, 0
  br i1 %140, label %141, label %142

141:                                              ; preds = %138
  store i32 1, ptr %14, align 4
  br label %194

142:                                              ; preds = %138
  %143 = load ptr, ptr %6, align 8
  %144 = load ptr, ptr %7, align 8
  %145 = load ptr, ptr %8, align 8
  %146 = load i32, ptr %11, align 4
  %147 = load i32, ptr %13, align 4
  %148 = call zeroext i16 @elem_tlv_e(ptr noundef %143, ptr noundef %144, ptr noundef %145, i8 noundef zeroext 123, i32 noundef 5, i32 noundef 46, i32 noundef %146, i32 noundef %147, ptr noundef null)
  %149 = zext i16 %148 to i32
  store i32 %149, ptr %12, align 4
  %150 = icmp ugt i32 %149, 0
  br i1 %150, label %151, label %158

151:                                              ; preds = %142
  %152 = load i32, ptr %12, align 4
  %153 = load i32, ptr %11, align 4
  %154 = add i32 %153, %152
  store i32 %154, ptr %11, align 4
  %155 = load i32, ptr %12, align 4
  %156 = load i32, ptr %13, align 4
  %157 = sub i32 %156, %155
  store i32 %157, ptr %13, align 4
  br label %158

158:                                              ; preds = %151, %142
  %159 = load i32, ptr %13, align 4
  %160 = icmp sle i32 %159, 0
  br i1 %160, label %161, label %162

161:                                              ; preds = %158
  store i32 1, ptr %14, align 4
  br label %194

162:                                              ; preds = %158
  %163 = load ptr, ptr %6, align 8
  %164 = load ptr, ptr %7, align 8
  %165 = load ptr, ptr %8, align 8
  %166 = load i32, ptr %11, align 4
  %167 = load i32, ptr %13, align 4
  %168 = call zeroext i16 @elem_tlv(ptr noundef %163, ptr noundef %164, ptr noundef %165, i8 noundef zeroext 92, i32 noundef 5, i32 noundef 50, i32 noundef %166, i32 noundef %167, ptr noundef null)
  %169 = zext i16 %168 to i32
  store i32 %169, ptr %12, align 4
  %170 = icmp ugt i32 %169, 0
  br i1 %170, label %171, label %178

171:                                              ; preds = %162
  %172 = load i32, ptr %12, align 4
  %173 = load i32, ptr %11, align 4
  %174 = add i32 %173, %172
  store i32 %174, ptr %11, align 4
  %175 = load i32, ptr %12, align 4
  %176 = load i32, ptr %13, align 4
  %177 = sub i32 %176, %175
  store i32 %177, ptr %13, align 4
  br label %178

178:                                              ; preds = %171, %162
  %179 = load i32, ptr %13, align 4
  %180 = icmp ugt i32 %179, 0
  br i1 %180, label %181, label %193

181:                                              ; preds = %178
  %182 = load ptr, ptr %7, align 8
  %183 = load ptr, ptr %8, align 8
  %184 = load ptr, ptr %6, align 8
  %185 = load i32, ptr %11, align 4
  %186 = load i32, ptr %13, align 4
  %187 = sub i32 %186, 0
  %188 = call ptr @proto_tree_add_expert(ptr noundef %182, ptr noundef %183, ptr noundef @ei_gsm_a_gm_extraneous_data, ptr noundef %184, i32 noundef %185, i32 noundef %187)
  %189 = load i32, ptr %13, align 4
  %190 = sub i32 %189, 0
  %191 = load i32, ptr %11, align 4
  %192 = add i32 %191, %190
  store i32 %192, ptr %11, align 4
  br label %193

193:                                              ; preds = %181, %178
  store i32 0, ptr %14, align 4
  br label %194

194:                                              ; preds = %193, %161, %141, %121, %102, %82, %62, %42, %23
  call void @llvm.lifetime.end.p0(i64 4, ptr %13) #6
  call void @llvm.lifetime.end.p0(i64 4, ptr %12) #6
  call void @llvm.lifetime.end.p0(i64 4, ptr %11) #6
  %195 = load i32, ptr %14, align 4
  switch i32 %195, label %197 [
    i32 0, label %196
    i32 1, label %196
  ]

196:                                              ; preds = %194, %194
  ret void

197:                                              ; preds = %194
  unreachable
}